target datalayout = "e-m:e-p270:32:32-p271:32:32-p272:64:64-i64:64-i128:128-f80:128-n8:16:32:64-S128"
target triple = "x86_64-pc-linux-gnu"

%struct.ossl_store_loader_ctx_st = type { ptr, ptr, i32, i32 }

; Function Attrs: nounwind uwtable
define internal i32 @engine_expect(ptr noundef %0, i32 noundef %1) #0 {
  %3 = alloca i32, align 4
  %4 = alloca ptr, align 8
  %5 = alloca i32, align 4
  store ptr %0, ptr %4, align 8, !tbaa !15
  store i32 %1, ptr %5, align 4, !tbaa !20
  %6 = load i32, ptr %5, align 4, !tbaa !20
  %7 = icmp eq i32 %6, 0
  br i1 %7, label %14, label %8

8:                                                ; preds = %2
  %9 = load i32, ptr %5, align 4, !tbaa !20
  %10 = icmp eq i32 %9, 3
  br i1 %10, label %14, label %11

11:                                               ; preds = %8
  %12 = load i32, ptr %5, align 4, !tbaa !20
  %13 = icmp eq i32 %12, 4
  br i1 %13, label %14, label %18

14:                                               ; preds = %11, %8, %2
  %15 = load i32, ptr %5, align 4, !tbaa !20
  %16 = load ptr, ptr %4, align 8, !tbaa !15
  %17 = getelementptr inbounds nuw %struct.ossl_store_loader_ctx_st, ptr %16, i32 0, i32 2
  store i32 %15, ptr %17, align 8, !tbaa !22
  store i32 1, ptr %3, align 4
  br label %19

18:                                               ; preds = %11
  store i32 0, ptr %3, align 4
  br label %19

19:                                               ; preds = %18, %14
  %20 = load i32, ptr %3, align 4
  ret i32 %20
}