; Function Attrs: mustprogress nofree norecurse nosync nounwind willreturn memory(argmem: write) uwtable
define internal range(i32 0, 2) i32 @engine_expect(ptr noundef writeonly captures(none) %0, i32 noundef %1) #3 {
  switch i32 %1, label %5 [
    i32 4, label %3
    i32 3, label %3
    i32 0, label %3
  ]

3:                                                ; preds = %2, %2, %2
  %4 = getelementptr inbounds nuw i8, ptr %0, i64 16
  store i32 %1, ptr %4, align 8, !tbaa !13
  br label %5

5:                                                ; preds = %2, %3
  %.0 = phi i32 [ 1, %3 ], [ 0, %2 ]
  ret i32 %.0
}